target datalayout = "e-m:e-p270:32:32-p271:32:32-p272:64:64-i64:64-i128:128-f80:128-n8:16:32:64-S128"
target triple = "x86_64-pc-linux-gnu"

%struct._zval_struct = type { %union._zend_value, %union.anon, %union.anon.2 }
%union._zend_value = type { i64 }
%union.anon = type { i32 }
%union.anon.2 = type { i32 }
%struct.anon.0 = type { i8, i8, %union.anon.1 }
%union.anon.1 = type { i16 }

; Function Attrs: alwaysinline nounwind uwtable
define internal zeroext i8 @zval_get_type(ptr noundef %0) #1 {
  %2 = alloca ptr, align 8
  store ptr %0, ptr %2, align 8, !tbaa !12
  %3 = load ptr, ptr %2, align 8, !tbaa !12
  %4 = getelementptr inbounds nuw %struct._zval_struct, ptr %3, i32 0, i32 1
  %5 = getelementptr inbounds nuw %struct.anon.0, ptr %4, i32 0, i32 0
  %6 = load i8, ptr %5, align 8, !tbaa !11
  ret i8 %6
}

; Function Attrs: nounwind uwtable
define internal i32 @div_function_base(ptr noundef %0, ptr noundef %1, ptr noundef %2) #0 {
  %4 = alloca i32, align 4
  %5 = alloca ptr, align 8
  %6 = alloca ptr, align 8
  %7 = alloca ptr, align 8
  %8 = alloca i8, align 1
  %9 = alloca i32, align 4
  %10 = alloca ptr, align 8
  %11 = alloca ptr, align 8
  %12 = alloca ptr, align 8
  %13 = alloca ptr, align 8
  %14 = alloca ptr, align 8
  %15 = alloca ptr, align 8
  store ptr %0, ptr %5, align 8, !tbaa !12
  store ptr %1, ptr %6, align 8, !tbaa !12
  store ptr %2, ptr %7, align 8, !tbaa !12
  call void @llvm.lifetime.start.p0(i64 1, ptr %8) #20
  %16 = load ptr, ptr %6, align 8, !tbaa !12
  %17 = call zeroext i8 @zval_get_type(ptr noundef %16)
  %18 = zext i8 %17 to i32
  %19 = shl i32 %18, 4
  %20 = load ptr, ptr %7, align 8, !tbaa !12
  %21 = call zeroext i8 @zval_get_type(ptr noundef %20)
  %22 = zext i8 %21 to i32
  %23 = or i32 %19, %22
  %24 = trunc i32 %23 to i8
  store i8 %24, ptr %8, align 1, !tbaa !11
  %25 = load i8, ptr %8, align 1, !tbaa !11
  %26 = zext i8 %25 to i32
  %27 = icmp eq i32 %26, 68
  %28 = xor i1 %27, true
  %29 = xor i1 %28, true
  %30 = zext i1 %29 to i32
  %31 = sext i32 %30 to i64
  %32 = call i64 @llvm.expect.i64(i64 %31, i64 1)
  %33 = icmp ne i64 %32, 0
  br i1 %33, label %34, label %104

34:                                               ; preds = %3
  %35 = load ptr, ptr %7, align 8, !tbaa !12
  %36 = getelementptr inbounds nuw %struct._zval_struct, ptr %35, i32 0, i32 0
  %37 = load i64, ptr %36, align 8, !tbaa !11
  %38 = icmp eq i64 %37, 0
  br i1 %38, label %39, label %40

39:                                               ; preds = %34
  store i32 1, ptr %4, align 4
  store i32 1, ptr %9, align 4
  br label %203

40:                                               ; preds = %34
  %41 = load ptr, ptr %7, align 8, !tbaa !12
  %42 = getelementptr inbounds nuw %struct._zval_struct, ptr %41, i32 0, i32 0
  %43 = load i64, ptr %42, align 8, !tbaa !11
  %44 = icmp eq i64 %43, -1
  br i1 %44, label %45, label %59

45:                                               ; preds = %40
  %46 = load ptr, ptr %6, align 8, !tbaa !12
  %47 = getelementptr inbounds nuw %struct._zval_struct, ptr %46, i32 0, i32 0
  %48 = load i64, ptr %47, align 8, !tbaa !11
  %49 = icmp eq i64 %48, -9223372036854775808
  br i1 %49, label %50, label %59

50:                                               ; preds = %45
  br label %51

51:                                               ; preds = %50
  call void @llvm.lifetime.start.p0(i64 8, ptr %10) #20
  %52 = load ptr, ptr %5, align 8, !tbaa !12
  store ptr %52, ptr %10, align 8, !tbaa !12
  %53 = load ptr, ptr %10, align 8, !tbaa !12
  %54 = getelementptr inbounds nuw %struct._zval_struct, ptr %53, i32 0, i32 0
  store double 0x43E0000000000000, ptr %54, align 8, !tbaa !11
  %55 = load ptr, ptr %10, align 8, !tbaa !12
  %56 = getelementptr inbounds nuw %struct._zval_struct, ptr %55, i32 0, i32 1
  store i32 5, ptr %56, align 8, !tbaa !11
  call void @llvm.lifetime.end.p0(i64 8, ptr %10) #20
  br label %57

57:                                               ; preds = %51
  br label %58

58:                                               ; preds = %57
  store i32 0, ptr %4, align 4
  store i32 1, ptr %9, align 4
  br label %203

59:                                               ; preds = %45, %40
  br label %60

60:                                               ; preds = %59
  %61 = load ptr, ptr %6, align 8, !tbaa !12
  %62 = getelementptr inbounds nuw %struct._zval_struct, ptr %61, i32 0, i32 0
  %63 = load i64, ptr %62, align 8, !tbaa !11
  %64 = load ptr, ptr %7, align 8, !tbaa !12
  %65 = getelementptr inbounds nuw %struct._zval_struct, ptr %64, i32 0, i32 0
  %66 = load i64, ptr %65, align 8, !tbaa !11
  %67 = srem i64 %63, %66
  %68 = icmp eq i64 %67, 0
  br i1 %68, label %69, label %85

69:                                               ; preds = %60
  br label %70

70:                                               ; preds = %69
  call void @llvm.lifetime.start.p0(i64 8, ptr %11) #20
  %71 = load ptr, ptr %5, align 8, !tbaa !12
  store ptr %71, ptr %11, align 8, !tbaa !12
  %72 = load ptr, ptr %6, align 8, !tbaa !12
  %73 = getelementptr inbounds nuw %struct._zval_struct, ptr %72, i32 0, i32 0
  %74 = load i64, ptr %73, align 8, !tbaa !11
  %75 = load ptr, ptr %7, align 8, !tbaa !12
  %76 = getelementptr inbounds nuw %struct._zval_struct, ptr %75, i32 0, i32 0
  %77 = load i64, ptr %76, align 8, !tbaa !11
  %78 = sdiv i64 %74, %77
  %79 = load ptr, ptr %11, align 8, !tbaa !12
  %80 = getelementptr inbounds nuw %struct._zval_struct, ptr %79, i32 0, i32 0
  store i64 %78, ptr %80, align 8, !tbaa !11
  %81 = load ptr, ptr %11, align 8, !tbaa !12
  %82 = getelementptr inbounds nuw %struct._zval_struct, ptr %81, i32 0, i32 1
  store i32 4, ptr %82, align 8, !tbaa !11
  call void @llvm.lifetime.end.p0(i64 8, ptr %11) #20
  br label %83

83:                                               ; preds = %70
  br label %84

84:                                               ; preds = %83
  br label %103

85:                                               ; preds = %60
  br label %86

86:                                               ; preds = %85
  call void @llvm.lifetime.start.p0(i64 8, ptr %12) #20
  %87 = load ptr, ptr %5, align 8, !tbaa !12
  store ptr %87, ptr %12, align 8, !tbaa !12
  %88 = load ptr, ptr %6, align 8, !tbaa !12
  %89 = getelementptr inbounds nuw %struct._zval_struct, ptr %88, i32 0, i32 0
  %90 = load i64, ptr %89, align 8, !tbaa !11
  %91 = sitofp i64 %90 to double
  %92 = load ptr, ptr %7, align 8, !tbaa !12
  %93 = getelementptr inbounds nuw %struct._zval_struct, ptr %92, i32 0, i32 0
  %94 = load i64, ptr %93, align 8, !tbaa !11
  %95 = sitofp i64 %94 to double
  %96 = fdiv double %91, %95
  %97 = load ptr, ptr %12, align 8, !tbaa !12
  %98 = getelementptr inbounds nuw %struct._zval_struct, ptr %97, i32 0, i32 0
  store double %96, ptr %98, align 8, !tbaa !11
  %99 = load ptr, ptr %12, align 8, !tbaa !12
  %100 = getelementptr inbounds nuw %struct._zval_struct, ptr %99, i32 0, i32 1
  store i32 5, ptr %100, align 8, !tbaa !11
  call void @llvm.lifetime.end.p0(i64 8, ptr %12) #20
  br label %101

101:                                              ; preds = %86
  br label %102

102:                                              ; preds = %101
  br label %103

103:                                              ; preds = %102, %84
  store i32 0, ptr %4, align 4
  store i32 1, ptr %9, align 4
  br label %203

104:                                              ; preds = %3
  %105 = load i8, ptr %8, align 1, !tbaa !11
  %106 = zext i8 %105 to i32
  %107 = icmp eq i32 %106, 85
  %108 = xor i1 %107, true
  %109 = xor i1 %108, true
  %110 = zext i1 %109 to i32
  %111 = sext i32 %110 to i64
  %112 = call i64 @llvm.expect.i64(i64 %111, i64 1)
  %113 = icmp ne i64 %112, 0
  br i1 %113, label %114, label %136

114:                                              ; preds = %104
  %115 = load ptr, ptr %7, align 8, !tbaa !12
  %116 = getelementptr inbounds nuw %struct._zval_struct, ptr %115, i32 0, i32 0
  %117 = load double, ptr %116, align 8, !tbaa !11
  %118 = fcmp oeq double %117, 0.000000e+00
  br i1 %118, label %119, label %120

119:                                              ; preds = %114
  store i32 1, ptr %4, align 4
  store i32 1, ptr %9, align 4
  br label %203

120:                                              ; preds = %114
  br label %121

121:                                              ; preds = %120
  call void @llvm.lifetime.start.p0(i64 8, ptr %13) #20
  %122 = load ptr, ptr %5, align 8, !tbaa !12
  store ptr %122, ptr %13, align 8, !tbaa !12
  %123 = load ptr, ptr %6, align 8, !tbaa !12
  %124 = getelementptr inbounds nuw %struct._zval_struct, ptr %123, i32 0, i32 0
  %125 = load double, ptr %124, align 8, !tbaa !11
  %126 = load ptr, ptr %7, align 8, !tbaa !12
  %127 = getelementptr inbounds nuw %struct._zval_struct, ptr %126, i32 0, i32 0
  %128 = load double, ptr %127, align 8, !tbaa !11
  %129 = fdiv double %125, %128
  %130 = load ptr, ptr %13, align 8, !tbaa !12
  %131 = getelementptr inbounds nuw %struct._zval_struct, ptr %130, i32 0, i32 0
  store double %129, ptr %131, align 8, !tbaa !11
  %132 = load ptr, ptr %13, align 8, !tbaa !12
  %133 = getelementptr inbounds nuw %struct._zval_struct, ptr %132, i32 0, i32 1
  store i32 5, ptr %133, align 8, !tbaa !11
  call void @llvm.lifetime.end.p0(i64 8, ptr %13) #20
  br label %134

134:                                              ; preds = %121
  br label %135

135:                                              ; preds = %134
  store i32 0, ptr %4, align 4
  store i32 1, ptr %9, align 4
  br label %203

136:                                              ; preds = %104
  %137 = load i8, ptr %8, align 1, !tbaa !11
  %138 = zext i8 %137 to i32
  %139 = icmp eq i32 %138, 84
  %140 = xor i1 %139, true
  %141 = xor i1 %140, true
  %142 = zext i1 %141 to i32
  %143 = sext i32 %142 to i64
  %144 = call i64 @llvm.expect.i64(i64 %143, i64 1)
  %145 = icmp ne i64 %144, 0
  br i1 %145, label %146, label %169

146:                                              ; preds = %136
  %147 = load ptr, ptr %7, align 8, !tbaa !12
  %148 = getelementptr inbounds nuw %struct._zval_struct, ptr %147, i32 0, i32 0
  %149 = load i64, ptr %148, align 8, !tbaa !11
  %150 = icmp eq i64 %149, 0
  br i1 %150, label %151, label %152

151:                                              ; preds = %146
  store i32 1, ptr %4, align 4
  store i32 1, ptr %9, align 4
  br label %203

152:                                              ; preds = %146
  br label %153

153:                                              ; preds = %152
  call void @llvm.lifetime.start.p0(i64 8, ptr %14) #20
  %154 = load ptr, ptr %5, align 8, !tbaa !12
  store ptr %154, ptr %14, align 8, !tbaa !12
  %155 = load ptr, ptr %6, align 8, !tbaa !12
  %156 = getelementptr inbounds nuw %struct._zval_struct, ptr %155, i32 0, i32 0
  %157 = load double, ptr %156, align 8, !tbaa !11
  %158 = load ptr, ptr %7, align 8, !tbaa !12
  %159 = getelementptr inbounds nuw %struct._zval_struct, ptr %158, i32 0, i32 0
  %160 = load i64, ptr %159, align 8, !tbaa !11
  %161 = sitofp i64 %160 to double
  %162 = fdiv double %157, %161
  %163 = load ptr, ptr %14, align 8, !tbaa !12
  %164 = getelementptr inbounds nuw %struct._zval_struct, ptr %163, i32 0, i32 0
  store double %162, ptr %164, align 8, !tbaa !11
  %165 = load ptr, ptr %14, align 8, !tbaa !12
  %166 = getelementptr inbounds nuw %struct._zval_struct, ptr %165, i32 0, i32 1
  store i32 5, ptr %166, align 8, !tbaa !11
  call void @llvm.lifetime.end.p0(i64 8, ptr %14) #20
  br label %167

167:                                              ; preds = %153
  br label %168

168:                                              ; preds = %167
  store i32 0, ptr %4, align 4
  store i32 1, ptr %9, align 4
  br label %203

169:                                              ; preds = %136
  %170 = load i8, ptr %8, align 1, !tbaa !11
  %171 = zext i8 %170 to i32
  %172 = icmp eq i32 %171, 69
  %173 = xor i1 %172, true
  %174 = xor i1 %173, true
  %175 = zext i1 %174 to i32
  %176 = sext i32 %175 to i64
  %177 = call i64 @llvm.expect.i64(i64 %176, i64 1)
  %178 = icmp ne i64 %177, 0
  br i1 %178, label %179, label %202

179:                                              ; preds = %169
  %180 = load ptr, ptr %7, align 8, !tbaa !12
  %181 = getelementptr inbounds nuw %struct._zval_struct, ptr %180, i32 0, i32 0
  %182 = load double, ptr %181, align 8, !tbaa !11
  %183 = fcmp oeq double %182, 0.000000e+00
  br i1 %183, label %184, label %185

184:                                              ; preds = %179
  store i32 1, ptr %4, align 4
  store i32 1, ptr %9, align 4
  br label %203

185:                                              ; preds = %179
  br label %186

186:                                              ; preds = %185
  call void @llvm.lifetime.start.p0(i64 8, ptr %15) #20
  %187 = load ptr, ptr %5, align 8, !tbaa !12
  store ptr %187, ptr %15, align 8, !tbaa !12
  %188 = load ptr, ptr %6, align 8, !tbaa !12
  %189 = getelementptr inbounds nuw %struct._zval_struct, ptr %188, i32 0, i32 0
  %190 = load i64, ptr %189, align 8, !tbaa !11
  %191 = sitofp i64 %190 to double
  %192 = load ptr, ptr %7, align 8, !tbaa !12
  %193 = getelementptr inbounds nuw %struct._zval_struct, ptr %192, i32 0, i32 0
  %194 = load double, ptr %193, align 8, !tbaa !11
  %195 = fdiv double %191, %194
  %196 = load ptr, ptr %15, align 8, !tbaa !12
  %197 = getelementptr inbounds nuw %struct._zval_struct, ptr %196, i32 0, i32 0
  store double %195, ptr %197, align 8, !tbaa !11
  %198 = load ptr, ptr %15, align 8, !tbaa !12
  %199 = getelementptr inbounds nuw %struct._zval_struct, ptr %198, i32 0, i32 1
  store i32 5, ptr %199, align 8, !tbaa !11
  call void @llvm.lifetime.end.p0(i64 8, ptr %15) #20
  br label %200

200:                                              ; preds = %186
  br label %201

201:                                              ; preds = %200
  store i32 0, ptr %4, align 4
  store i32 1, ptr %9, align 4
  br label %203

202:                                              ; preds = %169
  store i32 2, ptr %4, align 4
  store i32 1, ptr %9, align 4
  br label %203

203:                                              ; preds = %202, %201, %184, %168, %151, %135, %119, %103, %58, %39
  call void @llvm.lifetime.end.p0(i64 1, ptr %8) #20
  %204 = load i32, ptr %4, align 4
  ret i32 %204
}