; Function Attrs: mustprogress nofree norecurse nosync nounwind willreturn memory(argmem: readwrite) uwtable
define internal fastcc range(i32 0, 3) i32 @div_function_base(ptr noundef writeonly captures(none) %0, ptr noundef readonly captures(none) %1, ptr noundef readonly captures(none) %2) unnamed_addr #6 {
  %4 = getelementptr inbounds nuw i8, ptr %1, i64 8
  %5 = load i8, ptr %4, align 8, !tbaa !4
  %6 = shl i8 %5, 4
  %7 = getelementptr inbounds nuw i8, ptr %2, i64 8
  %8 = load i8, ptr %7, align 8, !tbaa !4
  %9 = or i8 %6, %8
  switch i8 %9, label %47 [
    i8 68, label %10
    i8 85, label %26
    i8 84, label %32
    i8 69, label %39
  ], !prof !92

10:                                               ; preds = %3
  %11 = load i64, ptr %2, align 8, !tbaa !4
  switch i64 %11, label %._crit_edge [
    i64 0, label %47
    i64 -1, label %12
  ]

._crit_edge:                                      ; preds = %10
  %.pre = load i64, ptr %1, align 8, !tbaa !4
  br label %16

12:                                               ; preds = %10
  %13 = load i64, ptr %1, align 8, !tbaa !4
  %14 = icmp eq i64 %13, -9223372036854775808
  br i1 %14, label %15, label %16

15:                                               ; preds = %12
  store double 0x43E0000000000000, ptr %0, align 8, !tbaa !4
  br label %.sink.split

16:                                               ; preds = %._crit_edge, %12
  %17 = phi i64 [ %.pre, %._crit_edge ], [ %13, %12 ]
  %18 = srem i64 %17, %11
  %19 = sdiv i64 %17, %11
  %20 = icmp eq i64 %18, 0
  br i1 %20, label %21, label %22

21:                                               ; preds = %16
  store i64 %19, ptr %0, align 8, !tbaa !4
  br label %.sink.split

22:                                               ; preds = %16
  %23 = sitofp i64 %17 to double
  %24 = sitofp i64 %11 to double
  %25 = fdiv double %23, %24
  store double %25, ptr %0, align 8, !tbaa !4
  br label %.sink.split

26:                                               ; preds = %3
  %27 = load double, ptr %2, align 8, !tbaa !4
  %28 = fcmp oeq double %27, 0.000000e+00
  br i1 %28, label %47, label %29

29:                                               ; preds = %26
  %30 = load double, ptr %1, align 8, !tbaa !4
  %31 = fdiv double %30, %27
  store double %31, ptr %0, align 8, !tbaa !4
  br label %.sink.split

32:                                               ; preds = %3
  %33 = load i64, ptr %2, align 8, !tbaa !4
  %34 = icmp eq i64 %33, 0
  br i1 %34, label %47, label %35

35:                                               ; preds = %32
  %36 = load double, ptr %1, align 8, !tbaa !4
  %37 = sitofp i64 %33 to double
  %38 = fdiv double %36, %37
  store double %38, ptr %0, align 8, !tbaa !4
  br label %.sink.split

39:                                               ; preds = %3
  %40 = load double, ptr %2, align 8, !tbaa !4
  %41 = fcmp oeq double %40, 0.000000e+00
  br i1 %41, label %47, label %42

42:                                               ; preds = %39
  %43 = load i64, ptr %1, align 8, !tbaa !4
  %44 = sitofp i64 %43 to double
  %45 = fdiv double %44, %40
  store double %45, ptr %0, align 8, !tbaa !4
  br label %.sink.split

.sink.split:                                      ; preds = %15, %29, %35, %42, %22, %21
  %.sink = phi i32 [ 4, %21 ], [ 5, %22 ], [ 5, %42 ], [ 5, %35 ], [ 5, %29 ], [ 5, %15 ]
  %46 = getelementptr inbounds nuw i8, ptr %0, i64 8
  store i32 %.sink, ptr %46, align 8, !tbaa !4
  br label %47

47:                                               ; preds = %.sink.split, %3, %39, %32, %26, %10
  %.0 = phi i32 [ 1, %10 ], [ 1, %26 ], [ 1, %32 ], [ 1, %39 ], [ 2, %3 ], [ 0, %.sink.split ]
  ret i32 %.0
}